target datalayout = "e-m:e-p270:32:32-p271:32:32-p272:64:64-i64:64-i128:128-f80:128-n8:16:32:64-S128"
target triple = "x86_64-pc-linux-gnu"

%struct.boxf = type { %struct.pointf_s, %struct.pointf_s }
%struct.pointf_s = type { double, double }
%struct.sgraph = type { i32, i32, i32, i32, ptr, ptr }
%struct.snode = type { i32, i32, ptr, ptr, i16, i16, [2 x ptr], ptr, i32, i8 }
%struct.cell = type { i32, i32, [6 x ptr], i32, ptr, %struct.boxf }
%struct.sedge = type { double, i32, i32, i32 }

@.str.20 = private unnamed_addr constant [11 x i8] c"graph G {\0A\00", align 1
@.str.21 = private unnamed_addr constant [20 x i8] c" node[shape=point]\0A\00", align 1
@.str.22 = private unnamed_addr constant [15 x i8] c" layout=neato\0A\00", align 1
@.str.23 = private unnamed_addr constant [25 x i8] c"  %d [pos=\22%.0f,%.0f!\22]\0A\00", align 1
@.str.24 = private unnamed_addr constant [24 x i8] c"  %d -- %d[label=\22%f\22]\0A\00", align 1
@.str.25 = private unnamed_addr constant [3 x i8] c"}\0A\00", align 1
@.str.26 = private unnamed_addr constant [39 x i8] c"Node not adjacent to cell -- Aborting\0A\00", align 1

; Function Attrs: nounwind uwtable
define internal { double, double } @coordOf(ptr noundef %0, ptr noundef %1) #0 {
  %3 = alloca %struct.pointf_s, align 8
  %4 = alloca ptr, align 8
  %5 = alloca ptr, align 8
  store ptr %0, ptr %4, align 8, !tbaa !70
  store ptr %1, ptr %5, align 8, !tbaa !62
  %6 = load ptr, ptr %4, align 8, !tbaa !70
  %7 = getelementptr inbounds nuw %struct.cell, ptr %6, i32 0, i32 4
  %8 = load ptr, ptr %7, align 8, !tbaa !101
  %9 = getelementptr inbounds ptr, ptr %8, i64 1
  %10 = load ptr, ptr %9, align 8, !tbaa !62
  %11 = load ptr, ptr %5, align 8, !tbaa !62
  %12 = icmp eq ptr %10, %11
  br i1 %12, label %13, label %33

13:                                               ; preds = %2
  %14 = load ptr, ptr %4, align 8, !tbaa !70
  %15 = getelementptr inbounds nuw %struct.cell, ptr %14, i32 0, i32 5
  %16 = getelementptr inbounds nuw %struct.boxf, ptr %15, i32 0, i32 0
  %17 = getelementptr inbounds nuw %struct.pointf_s, ptr %16, i32 0, i32 0
  %18 = load double, ptr %17, align 8, !tbaa !116
  %19 = load ptr, ptr %4, align 8, !tbaa !70
  %20 = getelementptr inbounds nuw %struct.cell, ptr %19, i32 0, i32 5
  %21 = getelementptr inbounds nuw %struct.boxf, ptr %20, i32 0, i32 1
  %22 = getelementptr inbounds nuw %struct.pointf_s, ptr %21, i32 0, i32 0
  %23 = load double, ptr %22, align 8, !tbaa !129
  %24 = fadd double %18, %23
  %25 = fdiv double %24, 2.000000e+00
  %26 = getelementptr inbounds nuw %struct.pointf_s, ptr %3, i32 0, i32 0
  store double %25, ptr %26, align 8, !tbaa !89
  %27 = load ptr, ptr %4, align 8, !tbaa !70
  %28 = getelementptr inbounds nuw %struct.cell, ptr %27, i32 0, i32 5
  %29 = getelementptr inbounds nuw %struct.boxf, ptr %28, i32 0, i32 1
  %30 = getelementptr inbounds nuw %struct.pointf_s, ptr %29, i32 0, i32 1
  %31 = load double, ptr %30, align 8, !tbaa !134
  %32 = getelementptr inbounds nuw %struct.pointf_s, ptr %3, i32 0, i32 1
  store double %31, ptr %32, align 8, !tbaa !90
  br label %121

33:                                               ; preds = %2
  %34 = load ptr, ptr %4, align 8, !tbaa !70
  %35 = getelementptr inbounds nuw %struct.cell, ptr %34, i32 0, i32 4
  %36 = load ptr, ptr %35, align 8, !tbaa !101
  %37 = getelementptr inbounds ptr, ptr %36, i64 3
  %38 = load ptr, ptr %37, align 8, !tbaa !62
  %39 = load ptr, ptr %5, align 8, !tbaa !62
  %40 = icmp eq ptr %38, %39
  br i1 %40, label %41, label %61

41:                                               ; preds = %33
  %42 = load ptr, ptr %4, align 8, !tbaa !70
  %43 = getelementptr inbounds nuw %struct.cell, ptr %42, i32 0, i32 5
  %44 = getelementptr inbounds nuw %struct.boxf, ptr %43, i32 0, i32 0
  %45 = getelementptr inbounds nuw %struct.pointf_s, ptr %44, i32 0, i32 0
  %46 = load double, ptr %45, align 8, !tbaa !116
  %47 = load ptr, ptr %4, align 8, !tbaa !70
  %48 = getelementptr inbounds nuw %struct.cell, ptr %47, i32 0, i32 5
  %49 = getelementptr inbounds nuw %struct.boxf, ptr %48, i32 0, i32 1
  %50 = getelementptr inbounds nuw %struct.pointf_s, ptr %49, i32 0, i32 0
  %51 = load double, ptr %50, align 8, !tbaa !129
  %52 = fadd double %46, %51
  %53 = fdiv double %52, 2.000000e+00
  %54 = getelementptr inbounds nuw %struct.pointf_s, ptr %3, i32 0, i32 0
  store double %53, ptr %54, align 8, !tbaa !89
  %55 = load ptr, ptr %4, align 8, !tbaa !70
  %56 = getelementptr inbounds nuw %struct.cell, ptr %55, i32 0, i32 5
  %57 = getelementptr inbounds nuw %struct.boxf, ptr %56, i32 0, i32 0
  %58 = getelementptr inbounds nuw %struct.pointf_s, ptr %57, i32 0, i32 1
  %59 = load double, ptr %58, align 8, !tbaa !115
  %60 = getelementptr inbounds nuw %struct.pointf_s, ptr %3, i32 0, i32 1
  store double %59, ptr %60, align 8, !tbaa !90
  br label %120

61:                                               ; preds = %33
  %62 = load ptr, ptr %4, align 8, !tbaa !70
  %63 = getelementptr inbounds nuw %struct.cell, ptr %62, i32 0, i32 4
  %64 = load ptr, ptr %63, align 8, !tbaa !101
  %65 = getelementptr inbounds ptr, ptr %64, i64 2
  %66 = load ptr, ptr %65, align 8, !tbaa !62
  %67 = load ptr, ptr %5, align 8, !tbaa !62
  %68 = icmp eq ptr %66, %67
  br i1 %68, label %69, label %89

69:                                               ; preds = %61
  %70 = load ptr, ptr %4, align 8, !tbaa !70
  %71 = getelementptr inbounds nuw %struct.cell, ptr %70, i32 0, i32 5
  %72 = getelementptr inbounds nuw %struct.boxf, ptr %71, i32 0, i32 0
  %73 = getelementptr inbounds nuw %struct.pointf_s, ptr %72, i32 0, i32 1
  %74 = load double, ptr %73, align 8, !tbaa !115
  %75 = load ptr, ptr %4, align 8, !tbaa !70
  %76 = getelementptr inbounds nuw %struct.cell, ptr %75, i32 0, i32 5
  %77 = getelementptr inbounds nuw %struct.boxf, ptr %76, i32 0, i32 1
  %78 = getelementptr inbounds nuw %struct.pointf_s, ptr %77, i32 0, i32 1
  %79 = load double, ptr %78, align 8, !tbaa !134
  %80 = fadd double %74, %79
  %81 = fdiv double %80, 2.000000e+00
  %82 = getelementptr inbounds nuw %struct.pointf_s, ptr %3, i32 0, i32 1
  store double %81, ptr %82, align 8, !tbaa !90
  %83 = load ptr, ptr %4, align 8, !tbaa !70
  %84 = getelementptr inbounds nuw %struct.cell, ptr %83, i32 0, i32 5
  %85 = getelementptr inbounds nuw %struct.boxf, ptr %84, i32 0, i32 0
  %86 = getelementptr inbounds nuw %struct.pointf_s, ptr %85, i32 0, i32 0
  %87 = load double, ptr %86, align 8, !tbaa !116
  %88 = getelementptr inbounds nuw %struct.pointf_s, ptr %3, i32 0, i32 0
  store double %87, ptr %88, align 8, !tbaa !89
  br label %119

89:                                               ; preds = %61
  %90 = load ptr, ptr %4, align 8, !tbaa !70
  %91 = getelementptr inbounds nuw %struct.cell, ptr %90, i32 0, i32 4
  %92 = load ptr, ptr %91, align 8, !tbaa !101
  %93 = getelementptr inbounds ptr, ptr %92, i64 0
  %94 = load ptr, ptr %93, align 8, !tbaa !62
  %95 = load ptr, ptr %5, align 8, !tbaa !62
  %96 = icmp eq ptr %94, %95
  br i1 %96, label %97, label %117

97:                                               ; preds = %89
  %98 = load ptr, ptr %4, align 8, !tbaa !70
  %99 = getelementptr inbounds nuw %struct.cell, ptr %98, i32 0, i32 5
  %100 = getelementptr inbounds nuw %struct.boxf, ptr %99, i32 0, i32 0
  %101 = getelementptr inbounds nuw %struct.pointf_s, ptr %100, i32 0, i32 1
  %102 = load double, ptr %101, align 8, !tbaa !115
  %103 = load ptr, ptr %4, align 8, !tbaa !70
  %104 = getelementptr inbounds nuw %struct.cell, ptr %103, i32 0, i32 5
  %105 = getelementptr inbounds nuw %struct.boxf, ptr %104, i32 0, i32 1
  %106 = getelementptr inbounds nuw %struct.pointf_s, ptr %105, i32 0, i32 1
  %107 = load double, ptr %106, align 8, !tbaa !134
  %108 = fadd double %102, %107
  %109 = fdiv double %108, 2.000000e+00
  %110 = getelementptr inbounds nuw %struct.pointf_s, ptr %3, i32 0, i32 1
  store double %109, ptr %110, align 8, !tbaa !90
  %111 = load ptr, ptr %4, align 8, !tbaa !70
  %112 = getelementptr inbounds nuw %struct.cell, ptr %111, i32 0, i32 5
  %113 = getelementptr inbounds nuw %struct.boxf, ptr %112, i32 0, i32 1
  %114 = getelementptr inbounds nuw %struct.pointf_s, ptr %113, i32 0, i32 0
  %115 = load double, ptr %114, align 8, !tbaa !129
  %116 = getelementptr inbounds nuw %struct.pointf_s, ptr %3, i32 0, i32 0
  store double %115, ptr %116, align 8, !tbaa !89
  br label %118

117:                                              ; preds = %89
  call void (ptr, ...) @agerrorf(ptr noundef @.str.26)
  call void @graphviz_exit(i32 noundef 1) #13
  unreachable

118:                                              ; preds = %97
  br label %119

119:                                              ; preds = %118, %69
  br label %120

120:                                              ; preds = %119, %41
  br label %121

121:                                              ; preds = %120, %13
  %122 = load { double, double }, ptr %3, align 8
  ret { double, double } %122
}

; Function Attrs: nounwind uwtable
define internal { double, double } @midPt(ptr noundef %0) #0 {
  %2 = alloca %struct.pointf_s, align 8
  %3 = alloca ptr, align 8
  store ptr %0, ptr %3, align 8, !tbaa !70
  %4 = load ptr, ptr %3, align 8, !tbaa !70
  %5 = getelementptr inbounds nuw %struct.cell, ptr %4, i32 0, i32 5
  %6 = getelementptr inbounds nuw %struct.boxf, ptr %5, i32 0, i32 0
  %7 = getelementptr inbounds nuw %struct.pointf_s, ptr %6, i32 0, i32 0
  %8 = load double, ptr %7, align 8, !tbaa !116
  %9 = load ptr, ptr %3, align 8, !tbaa !70
  %10 = getelementptr inbounds nuw %struct.cell, ptr %9, i32 0, i32 5
  %11 = getelementptr inbounds nuw %struct.boxf, ptr %10, i32 0, i32 1
  %12 = getelementptr inbounds nuw %struct.pointf_s, ptr %11, i32 0, i32 0
  %13 = load double, ptr %12, align 8, !tbaa !129
  %14 = fadd double %8, %13
  %15 = fdiv double %14, 2.000000e+00
  %16 = getelementptr inbounds nuw %struct.pointf_s, ptr %2, i32 0, i32 0
  store double %15, ptr %16, align 8, !tbaa !89
  %17 = load ptr, ptr %3, align 8, !tbaa !70
  %18 = getelementptr inbounds nuw %struct.cell, ptr %17, i32 0, i32 5
  %19 = getelementptr inbounds nuw %struct.boxf, ptr %18, i32 0, i32 0
  %20 = getelementptr inbounds nuw %struct.pointf_s, ptr %19, i32 0, i32 1
  %21 = load double, ptr %20, align 8, !tbaa !115
  %22 = load ptr, ptr %3, align 8, !tbaa !70
  %23 = getelementptr inbounds nuw %struct.cell, ptr %22, i32 0, i32 5
  %24 = getelementptr inbounds nuw %struct.boxf, ptr %23, i32 0, i32 1
  %25 = getelementptr inbounds nuw %struct.pointf_s, ptr %24, i32 0, i32 1
  %26 = load double, ptr %25, align 8, !tbaa !134
  %27 = fadd double %21, %26
  %28 = fdiv double %27, 2.000000e+00
  %29 = getelementptr inbounds nuw %struct.pointf_s, ptr %2, i32 0, i32 1
  store double %28, ptr %29, align 8, !tbaa !90
  %30 = load { double, double }, ptr %2, align 8
  ret { double, double } %30
}

; Function Attrs: nounwind uwtable
define internal void @emitSearchGraph(ptr noundef %0, ptr noundef %1) #0 {
  %3 = alloca ptr, align 8
  %4 = alloca ptr, align 8
  %5 = alloca ptr, align 8
  %6 = alloca ptr, align 8
  %7 = alloca ptr, align 8
  %8 = alloca %struct.pointf_s, align 8
  %9 = alloca i32, align 4
  %10 = alloca %struct.pointf_s, align 8
  %11 = alloca %struct.pointf_s, align 8
  store ptr %0, ptr %3, align 8, !tbaa !25
  store ptr %1, ptr %4, align 8, !tbaa !10
  call void @llvm.lifetime.start.p0(i64 8, ptr %5) #12
  call void @llvm.lifetime.start.p0(i64 8, ptr %6) #12
  call void @llvm.lifetime.start.p0(i64 8, ptr %7) #12
  call void @llvm.lifetime.start.p0(i64 16, ptr %8) #12
  call void @llvm.lifetime.start.p0(i64 4, ptr %9) #12
  %12 = load ptr, ptr %3, align 8, !tbaa !25
  %13 = call i32 @fputs(ptr noundef @.str.20, ptr noundef %12)
  %14 = load ptr, ptr %3, align 8, !tbaa !25
  %15 = call i32 @fputs(ptr noundef @.str.21, ptr noundef %14)
  %16 = load ptr, ptr %3, align 8, !tbaa !25
  %17 = call i32 @fputs(ptr noundef @.str.22, ptr noundef %16)
  store i32 0, ptr %9, align 4, !tbaa !17
  br label %18

18:                                               ; preds = %75, %2
  %19 = load i32, ptr %9, align 4, !tbaa !17
  %20 = load ptr, ptr %4, align 8, !tbaa !10
  %21 = getelementptr inbounds nuw %struct.sgraph, ptr %20, i32 0, i32 0
  %22 = load i32, ptr %21, align 8, !tbaa !57
  %23 = icmp slt i32 %19, %22
  br i1 %23, label %24, label %78

24:                                               ; preds = %18
  %25 = load ptr, ptr %4, align 8, !tbaa !10
  %26 = getelementptr inbounds nuw %struct.sgraph, ptr %25, i32 0, i32 4
  %27 = load ptr, ptr %26, align 8, !tbaa !61
  %28 = load i32, ptr %9, align 4, !tbaa !17
  %29 = sext i32 %28 to i64
  %30 = getelementptr inbounds %struct.snode, ptr %27, i64 %29
  store ptr %30, ptr %6, align 8, !tbaa !62
  %31 = load ptr, ptr %6, align 8, !tbaa !62
  %32 = getelementptr inbounds nuw %struct.snode, ptr %31, i32 0, i32 6
  %33 = getelementptr inbounds [2 x ptr], ptr %32, i64 0, i64 0
  %34 = load ptr, ptr %33, align 8, !tbaa !70
  store ptr %34, ptr %5, align 8, !tbaa !70
  %35 = load ptr, ptr %5, align 8, !tbaa !70
  %36 = load ptr, ptr %6, align 8, !tbaa !62
  %37 = getelementptr inbounds nuw %struct.snode, ptr %36, i32 0, i32 6
  %38 = getelementptr inbounds [2 x ptr], ptr %37, i64 0, i64 1
  %39 = load ptr, ptr %38, align 8, !tbaa !70
  %40 = icmp eq ptr %35, %39
  br i1 %40, label %41, label %48

41:                                               ; preds = %24
  call void @llvm.lifetime.start.p0(i64 16, ptr %10) #12
  %42 = load ptr, ptr %5, align 8, !tbaa !70
  %43 = call { double, double } @midPt(ptr noundef %42)
  %44 = getelementptr inbounds nuw { double, double }, ptr %10, i32 0, i32 0
  %45 = extractvalue { double, double } %43, 0
  store double %45, ptr %44, align 8
  %46 = getelementptr inbounds nuw { double, double }, ptr %10, i32 0, i32 1
  %47 = extractvalue { double, double } %43, 1
  store double %47, ptr %46, align 8
  call void @llvm.memcpy.p0.p0.i64(ptr align 8 %8, ptr align 8 %10, i64 16, i1 false), !tbaa.struct !84
  call void @llvm.lifetime.end.p0(i64 16, ptr %10) #12
  br label %67

48:                                               ; preds = %24
  %49 = load ptr, ptr %5, align 8, !tbaa !70
  %50 = getelementptr inbounds nuw %struct.cell, ptr %49, i32 0, i32 0
  %51 = load i32, ptr %50, align 8, !tbaa !86
  %52 = and i32 %51, 1
  %53 = icmp ne i32 %52, 0
  br i1 %53, label %54, label %59

54:                                               ; preds = %48
  %55 = load ptr, ptr %6, align 8, !tbaa !62
  %56 = getelementptr inbounds nuw %struct.snode, ptr %55, i32 0, i32 6
  %57 = getelementptr inbounds [2 x ptr], ptr %56, i64 0, i64 1
  %58 = load ptr, ptr %57, align 8, !tbaa !70
  store ptr %58, ptr %5, align 8, !tbaa !70
  br label %59

59:                                               ; preds = %54, %48
  call void @llvm.lifetime.start.p0(i64 16, ptr %11) #12
  %60 = load ptr, ptr %5, align 8, !tbaa !70
  %61 = load ptr, ptr %6, align 8, !tbaa !62
  %62 = call { double, double } @coordOf(ptr noundef %60, ptr noundef %61)
  %63 = getelementptr inbounds nuw { double, double }, ptr %11, i32 0, i32 0
  %64 = extractvalue { double, double } %62, 0
  store double %64, ptr %63, align 8
  %65 = getelementptr inbounds nuw { double, double }, ptr %11, i32 0, i32 1
  %66 = extractvalue { double, double } %62, 1
  store double %66, ptr %65, align 8
  call void @llvm.memcpy.p0.p0.i64(ptr align 8 %8, ptr align 8 %11, i64 16, i1 false), !tbaa.struct !84
  call void @llvm.lifetime.end.p0(i64 16, ptr %11) #12
  br label %67

67:                                               ; preds = %59, %41
  %68 = load ptr, ptr %3, align 8, !tbaa !25
  %69 = load i32, ptr %9, align 4, !tbaa !17
  %70 = getelementptr inbounds nuw %struct.pointf_s, ptr %8, i32 0, i32 0
  %71 = load double, ptr %70, align 8, !tbaa !89
  %72 = getelementptr inbounds nuw %struct.pointf_s, ptr %8, i32 0, i32 1
  %73 = load double, ptr %72, align 8, !tbaa !90
  %74 = call i32 (ptr, ptr, ...) @fprintf(ptr noundef %68, ptr noundef @.str.23, i32 noundef %69, double noundef %71, double noundef %73) #12
  br label %75

75:                                               ; preds = %67
  %76 = load i32, ptr %9, align 4, !tbaa !17
  %77 = add nsw i32 %76, 1
  store i32 %77, ptr %9, align 4, !tbaa !17
  br label %18, !llvm.loop !91

78:                                               ; preds = %18
  store i32 0, ptr %9, align 4, !tbaa !17
  br label %79

79:                                               ; preds = %103, %78
  %80 = load i32, ptr %9, align 4, !tbaa !17
  %81 = load ptr, ptr %4, align 8, !tbaa !10
  %82 = getelementptr inbounds nuw %struct.sgraph, ptr %81, i32 0, i32 1
  %83 = load i32, ptr %82, align 4, !tbaa !92
  %84 = icmp slt i32 %80, %83
  br i1 %84, label %85, label %106

85:                                               ; preds = %79
  %86 = load ptr, ptr %4, align 8, !tbaa !10
  %87 = getelementptr inbounds nuw %struct.sgraph, ptr %86, i32 0, i32 5
  %88 = load ptr, ptr %87, align 8, !tbaa !93
  %89 = load i32, ptr %9, align 4, !tbaa !17
  %90 = sext i32 %89 to i64
  %91 = getelementptr inbounds %struct.sedge, ptr %88, i64 %90
  store ptr %91, ptr %7, align 8, !tbaa !94
  %92 = load ptr, ptr %3, align 8, !tbaa !25
  %93 = load ptr, ptr %7, align 8, !tbaa !94
  %94 = getelementptr inbounds nuw %struct.sedge, ptr %93, i32 0, i32 2
  %95 = load i32, ptr %94, align 4, !tbaa !95
  %96 = load ptr, ptr %7, align 8, !tbaa !94
  %97 = getelementptr inbounds nuw %struct.sedge, ptr %96, i32 0, i32 3
  %98 = load i32, ptr %97, align 8, !tbaa !97
  %99 = load ptr, ptr %7, align 8, !tbaa !94
  %100 = getelementptr inbounds nuw %struct.sedge, ptr %99, i32 0, i32 0
  %101 = load double, ptr %100, align 8, !tbaa !98
  %102 = call i32 (ptr, ptr, ...) @fprintf(ptr noundef %92, ptr noundef @.str.24, i32 noundef %95, i32 noundef %98, double noundef %101) #12
  br label %103

103:                                              ; preds = %85
  %104 = load i32, ptr %9, align 4, !tbaa !17
  %105 = add nsw i32 %104, 1
  store i32 %105, ptr %9, align 4, !tbaa !17
  br label %79, !llvm.loop !99

106:                                              ; preds = %79
  %107 = load ptr, ptr %3, align 8, !tbaa !25
  %108 = call i32 @fputs(ptr noundef @.str.25, ptr noundef %107)
  call void @llvm.lifetime.end.p0(i64 4, ptr %9) #12
  call void @llvm.lifetime.end.p0(i64 16, ptr %8) #12
  call void @llvm.lifetime.end.p0(i64 8, ptr %7) #12
  call void @llvm.lifetime.end.p0(i64 8, ptr %6) #12
  call void @llvm.lifetime.end.p0(i64 8, ptr %5) #12
  ret void
}