; Function Attrs: nounwind uwtable
define internal fastcc void @emitSearchGraph(ptr noundef captures(none) %0, ptr noundef readonly captures(none) %1) unnamed_addr #0 {
  %3 = tail call i64 @fwrite(ptr nonnull @.str.20, i64 10, i64 1, ptr %0)
  %4 = tail call i64 @fwrite(ptr nonnull @.str.21, i64 19, i64 1, ptr %0)
  %5 = tail call i64 @fwrite(ptr nonnull @.str.22, i64 14, i64 1, ptr %0)
  %6 = load i32, ptr %1, align 8, !tbaa !50
  %7 = icmp sgt i32 %6, 0
  br i1 %7, label %.lr.ph, label %.preheader

.lr.ph:                                           ; preds = %2
  %8 = getelementptr inbounds nuw i8, ptr %1, i64 16
  br label %13

.preheader:                                       ; preds = %coordOf.exit, %2
  %9 = getelementptr inbounds nuw i8, ptr %1, i64 4
  %10 = load i32, ptr %9, align 4, !tbaa !144
  %11 = icmp sgt i32 %10, 0
  br i1 %11, label %.lr.ph42, label %._crit_edge

.lr.ph42:                                         ; preds = %.preheader
  %12 = getelementptr inbounds nuw i8, ptr %1, i64 24
  br label %95

13:                                               ; preds = %.lr.ph, %coordOf.exit
  %indvars.iv = phi i64 [ 0, %.lr.ph ], [ %indvars.iv.next, %coordOf.exit ]
  %14 = load ptr, ptr %8, align 8, !tbaa !54
  %15 = getelementptr inbounds nuw %struct.snode, ptr %14, i64 %indvars.iv
  %16 = getelementptr inbounds nuw i8, ptr %15, i64 32
  %17 = load ptr, ptr %16, align 8, !tbaa !71
  %18 = getelementptr inbounds nuw i8, ptr %15, i64 40
  %19 = load ptr, ptr %18, align 8, !tbaa !71
  %20 = icmp eq ptr %17, %19
  br i1 %20, label %21, label %34

21:                                               ; preds = %13
  %22 = getelementptr inbounds nuw i8, ptr %17, i64 72
  %23 = load double, ptr %22, align 8, !tbaa !77
  %24 = getelementptr inbounds nuw i8, ptr %17, i64 88
  %25 = load double, ptr %24, align 8, !tbaa !80
  %26 = fadd double %23, %25
  %27 = fmul double %26, 5.000000e-01
  %28 = getelementptr inbounds nuw i8, ptr %17, i64 80
  %29 = load double, ptr %28, align 8, !tbaa !78
  %30 = getelementptr inbounds nuw i8, ptr %17, i64 96
  %31 = load double, ptr %30, align 8, !tbaa !79
  %32 = fadd double %29, %31
  %33 = fmul double %32, 5.000000e-01
  br label %coordOf.exit

34:                                               ; preds = %13
  %35 = load i32, ptr %17, align 8, !tbaa !76
  %36 = and i32 %35, 1
  %.not = icmp eq i32 %36, 0
  %spec.select = select i1 %.not, ptr %17, ptr %19
  %37 = getelementptr inbounds nuw i8, ptr %spec.select, i64 64
  %38 = load ptr, ptr %37, align 8, !tbaa !66
  %39 = getelementptr inbounds nuw i8, ptr %38, i64 8
  %40 = load ptr, ptr %39, align 8, !tbaa !67
  %41 = icmp eq ptr %40, %15
  br i1 %41, label %42, label %51

42:                                               ; preds = %34
  %43 = getelementptr inbounds nuw i8, ptr %spec.select, i64 72
  %44 = load double, ptr %43, align 8, !tbaa !77
  %45 = getelementptr inbounds nuw i8, ptr %spec.select, i64 88
  %46 = load double, ptr %45, align 8, !tbaa !80
  %47 = fadd double %44, %46
  %48 = fmul double %47, 5.000000e-01
  %49 = getelementptr inbounds nuw i8, ptr %spec.select, i64 96
  %50 = load double, ptr %49, align 8, !tbaa !79
  br label %coordOf.exit

51:                                               ; preds = %34
  %52 = getelementptr inbounds nuw i8, ptr %38, i64 24
  %53 = load ptr, ptr %52, align 8, !tbaa !67
  %54 = icmp eq ptr %53, %15
  br i1 %54, label %55, label %64

55:                                               ; preds = %51
  %56 = getelementptr inbounds nuw i8, ptr %spec.select, i64 72
  %57 = load double, ptr %56, align 8, !tbaa !77
  %58 = getelementptr inbounds nuw i8, ptr %spec.select, i64 88
  %59 = load double, ptr %58, align 8, !tbaa !80
  %60 = fadd double %57, %59
  %61 = fmul double %60, 5.000000e-01
  %62 = getelementptr inbounds nuw i8, ptr %spec.select, i64 80
  %63 = load double, ptr %62, align 8, !tbaa !78
  br label %coordOf.exit

64:                                               ; preds = %51
  %65 = getelementptr inbounds nuw i8, ptr %38, i64 16
  %66 = load ptr, ptr %65, align 8, !tbaa !67
  %67 = icmp eq ptr %66, %15
  br i1 %67, label %68, label %77

68:                                               ; preds = %64
  %69 = getelementptr inbounds nuw i8, ptr %spec.select, i64 72
  %70 = getelementptr inbounds nuw i8, ptr %spec.select, i64 80
  %71 = load double, ptr %70, align 8, !tbaa !78
  %72 = getelementptr inbounds nuw i8, ptr %spec.select, i64 96
  %73 = load double, ptr %72, align 8, !tbaa !79
  %74 = fadd double %71, %73
  %75 = fmul double %74, 5.000000e-01
  %76 = load double, ptr %69, align 8, !tbaa !77
  br label %coordOf.exit

77:                                               ; preds = %64
  %78 = load ptr, ptr %38, align 8, !tbaa !67
  %79 = icmp eq ptr %78, %15
  br i1 %79, label %80, label %89

80:                                               ; preds = %77
  %81 = getelementptr inbounds nuw i8, ptr %spec.select, i64 80
  %82 = load double, ptr %81, align 8, !tbaa !78
  %83 = getelementptr inbounds nuw i8, ptr %spec.select, i64 88
  %84 = getelementptr inbounds nuw i8, ptr %spec.select, i64 96
  %85 = load double, ptr %84, align 8, !tbaa !79
  %86 = fadd double %82, %85
  %87 = fmul double %86, 5.000000e-01
  %88 = load double, ptr %83, align 8, !tbaa !80
  br label %coordOf.exit

89:                                               ; preds = %77
  tail call void (ptr, ...) @agerrorf(ptr noundef nonnull @.str.26) #18
  tail call fastcc void @graphviz_exit() #21
  unreachable

coordOf.exit:                                     ; preds = %80, %68, %55, %42, %21
  %.pn39 = phi double [ %27, %21 ], [ %48, %42 ], [ %61, %55 ], [ %76, %68 ], [ %88, %80 ]
  %.pn37 = phi double [ %33, %21 ], [ %50, %42 ], [ %63, %55 ], [ %75, %68 ], [ %87, %80 ]
  %90 = trunc nuw nsw i64 %indvars.iv to i32
  %91 = tail call i32 (ptr, ptr, ...) @fprintf(ptr noundef %0, ptr noundef nonnull @.str.23, i32 noundef %90, double noundef %.pn39, double noundef %.pn37) #18
  %indvars.iv.next = add nuw nsw i64 %indvars.iv, 1
  %92 = load i32, ptr %1, align 8, !tbaa !50
  %93 = sext i32 %92 to i64
  %94 = icmp slt i64 %indvars.iv.next, %93
  br i1 %94, label %13, label %.preheader, !llvm.loop !145

95:                                               ; preds = %.lr.ph42, %95
  %indvars.iv44 = phi i64 [ 0, %.lr.ph42 ], [ %indvars.iv.next45, %95 ]
  %96 = load ptr, ptr %12, align 8, !tbaa !146
  %97 = getelementptr inbounds nuw %struct.sedge, ptr %96, i64 %indvars.iv44
  %98 = getelementptr inbounds nuw i8, ptr %97, i64 12
  %99 = load i32, ptr %98, align 4, !tbaa !147
  %100 = getelementptr inbounds nuw i8, ptr %97, i64 16
  %101 = load i32, ptr %100, align 8, !tbaa !149
  %102 = load double, ptr %97, align 8, !tbaa !150
  %103 = tail call i32 (ptr, ptr, ...) @fprintf(ptr noundef %0, ptr noundef nonnull @.str.24, i32 noundef %99, i32 noundef %101, double noundef %102) #18
  %indvars.iv.next45 = add nuw nsw i64 %indvars.iv44, 1
  %104 = load i32, ptr %9, align 4, !tbaa !144
  %105 = sext i32 %104 to i64
  %106 = icmp slt i64 %indvars.iv.next45, %105
  br i1 %106, label %95, label %._crit_edge, !llvm.loop !151

._crit_edge:                                      ; preds = %95, %.preheader
  %107 = tail call i64 @fwrite(ptr nonnull @.str.25, i64 2, i64 1, ptr %0)
  ret void
}